target datalayout = "e-m:e-p270:32:32-p271:32:32-p272:64:64-i64:64-i128:128-f80:128-n8:16:32:64-S128"
target triple = "x86_64-unknown-linux-gnu"

%"struct.OpenImageIO_v2_6_0::TypeDesc" = type { i8, i8, i8, i8, i32 }
%"class.OpenImageIO_v2_6_0::ImageSpec" = type { i32, i32, i32, i32, i32, i32, i32, i32, i32, i32, i32, i32, i32, i32, i32, i32, %"struct.OpenImageIO_v2_6_0::TypeDesc", %"class.std::vector", %"class.std::vector.3", i32, i32, i8, %"class.OpenImageIO_v2_6_0::ParamValueList" }
%"class.std::vector" = type { %"struct.std::_Vector_base" }
%"struct.std::_Vector_base" = type { %"struct.std::_Vector_base<OpenImageIO_v2_6_0::TypeDesc, std::allocator<OpenImageIO_v2_6_0::TypeDesc>>::_Vector_impl" }
%"struct.std::_Vector_base<OpenImageIO_v2_6_0::TypeDesc, std::allocator<OpenImageIO_v2_6_0::TypeDesc>>::_Vector_impl" = type { %"struct.std::_Vector_base<OpenImageIO_v2_6_0::TypeDesc, std::allocator<OpenImageIO_v2_6_0::TypeDesc>>::_Vector_impl_data" }
%"struct.std::_Vector_base<OpenImageIO_v2_6_0::TypeDesc, std::allocator<OpenImageIO_v2_6_0::TypeDesc>>::_Vector_impl_data" = type { ptr, ptr, ptr }
%"class.std::vector.3" = type { %"struct.std::_Vector_base.4" }
%"struct.std::_Vector_base.4" = type { %"struct.std::_Vector_base<std::__cxx11::basic_string<char>, std::allocator<std::__cxx11::basic_string<char>>>::_Vector_impl" }
%"struct.std::_Vector_base<std::__cxx11::basic_string<char>, std::allocator<std::__cxx11::basic_string<char>>>::_Vector_impl" = type { %"struct.std::_Vector_base<std::__cxx11::basic_string<char>, std::allocator<std::__cxx11::basic_string<char>>>::_Vector_impl_data" }
%"struct.std::_Vector_base<std::__cxx11::basic_string<char>, std::allocator<std::__cxx11::basic_string<char>>>::_Vector_impl_data" = type { ptr, ptr, ptr }
%"class.OpenImageIO_v2_6_0::ParamValueList" = type { %"class.std::vector.8" }
%"class.std::vector.8" = type { %"struct.std::_Vector_base.9" }
%"struct.std::_Vector_base.9" = type { %"struct.std::_Vector_base<OpenImageIO_v2_6_0::ParamValue, std::allocator<OpenImageIO_v2_6_0::ParamValue>>::_Vector_impl" }
%"struct.std::_Vector_base<OpenImageIO_v2_6_0::ParamValue, std::allocator<OpenImageIO_v2_6_0::ParamValue>>::_Vector_impl" = type { %"struct.std::_Vector_base<OpenImageIO_v2_6_0::ParamValue, std::allocator<OpenImageIO_v2_6_0::ParamValue>>::_Vector_impl_data" }
%"struct.std::_Vector_base<OpenImageIO_v2_6_0::ParamValue, std::allocator<OpenImageIO_v2_6_0::ParamValue>>::_Vector_impl_data" = type { ptr, ptr, ptr }

; Function Attrs: mustprogress nounwind uwtable
define linkonce_odr void @_ZNSt15__new_allocatorIN18OpenImageIO_v2_6_010ParamValueEEC2Ev(ptr noundef nonnull align 1 dereferenceable(1) %this) unnamed_addr #4 comdat align 2 {
entry:
  %this.addr = alloca ptr, align 8
  store ptr %this, ptr %this.addr, align 8
  ret void
}

; Function Attrs: mustprogress nounwind uwtable
define linkonce_odr void @_ZNSt12_Vector_baseIN18OpenImageIO_v2_6_010ParamValueESaIS1_EE17_Vector_impl_dataC2Ev(ptr noundef nonnull align 8 dereferenceable(24) %this) unnamed_addr #4 comdat align 2 {
entry:
  %this.addr = alloca ptr, align 8
  store ptr %this, ptr %this.addr, align 8
  %this1 = load ptr, ptr %this.addr, align 8
  %_M_start = getelementptr inbounds %"struct.std::_Vector_base<OpenImageIO_v2_6_0::ParamValue, std::allocator<OpenImageIO_v2_6_0::ParamValue>>::_Vector_impl_data", ptr %this1, i32 0, i32 0
  store ptr null, ptr %_M_start, align 8
  %_M_finish = getelementptr inbounds %"struct.std::_Vector_base<OpenImageIO_v2_6_0::ParamValue, std::allocator<OpenImageIO_v2_6_0::ParamValue>>::_Vector_impl_data", ptr %this1, i32 0, i32 1
  store ptr null, ptr %_M_finish, align 8
  %_M_end_of_storage = getelementptr inbounds %"struct.std::_Vector_base<OpenImageIO_v2_6_0::ParamValue, std::allocator<OpenImageIO_v2_6_0::ParamValue>>::_Vector_impl_data", ptr %this1, i32 0, i32 2
  store ptr null, ptr %_M_end_of_storage, align 8
  ret void
}

; Function Attrs: mustprogress nounwind uwtable
define linkonce_odr void @_ZNSaIN18OpenImageIO_v2_6_010ParamValueEEC2Ev(ptr noundef nonnull align 1 dereferenceable(1) %this) unnamed_addr #4 comdat align 2 {
entry:
  %this.addr = alloca ptr, align 8
  store ptr %this, ptr %this.addr, align 8
  %this1 = load ptr, ptr %this.addr, align 8
  call void @_ZNSt15__new_allocatorIN18OpenImageIO_v2_6_010ParamValueEEC2Ev(ptr noundef nonnull align 1 dereferenceable(1) %this1) #3
  ret void
}

; Function Attrs: mustprogress nounwind uwtable
define linkonce_odr void @_ZNSt15__new_allocatorINSt7__cxx1112basic_stringIcSt11char_traitsIcESaIcEEEEC2Ev(ptr noundef nonnull align 1 dereferenceable(1) %this) unnamed_addr #4 comdat align 2 {
entry:
  %this.addr = alloca ptr, align 8
  store ptr %this, ptr %this.addr, align 8
  ret void
}

; Function Attrs: mustprogress nounwind uwtable
define linkonce_odr void @_ZNSt15__new_allocatorIN18OpenImageIO_v2_6_08TypeDescEEC2Ev(ptr noundef nonnull align 1 dereferenceable(1) %this) unnamed_addr #4 comdat align 2 {
entry:
  %this.addr = alloca ptr, align 8
  store ptr %this, ptr %this.addr, align 8
  ret void
}

; Function Attrs: mustprogress nounwind uwtable
define linkonce_odr void @_ZNSt12_Vector_baseIN18OpenImageIO_v2_6_010ParamValueESaIS1_EE12_Vector_implC2Ev(ptr noundef nonnull align 8 dereferenceable(24) %this) unnamed_addr #4 comdat align 2 {
entry:
  %this.addr = alloca ptr, align 8
  store ptr %this, ptr %this.addr, align 8
  %this1 = load ptr, ptr %this.addr, align 8
  call void @_ZNSaIN18OpenImageIO_v2_6_010ParamValueEEC2Ev(ptr noundef nonnull align 1 dereferenceable(1) %this1) #3
  call void @_ZNSt12_Vector_baseIN18OpenImageIO_v2_6_010ParamValueESaIS1_EE17_Vector_impl_dataC2Ev(ptr noundef nonnull align 8 dereferenceable(24) %this1) #3
  ret void
}

; Function Attrs: mustprogress nounwind uwtable
define linkonce_odr void @_ZNSt12_Vector_baseINSt7__cxx1112basic_stringIcSt11char_traitsIcESaIcEEESaIS5_EE17_Vector_impl_dataC2Ev(ptr noundef nonnull align 8 dereferenceable(24) %this) unnamed_addr #4 comdat align 2 {
entry:
  %this.addr = alloca ptr, align 8
  store ptr %this, ptr %this.addr, align 8
  %this1 = load ptr, ptr %this.addr, align 8
  %_M_start = getelementptr inbounds %"struct.std::_Vector_base<std::__cxx11::basic_string<char>, std::allocator<std::__cxx11::basic_string<char>>>::_Vector_impl_data", ptr %this1, i32 0, i32 0
  store ptr null, ptr %_M_start, align 8
  %_M_finish = getelementptr inbounds %"struct.std::_Vector_base<std::__cxx11::basic_string<char>, std::allocator<std::__cxx11::basic_string<char>>>::_Vector_impl_data", ptr %this1, i32 0, i32 1
  store ptr null, ptr %_M_finish, align 8
  %_M_end_of_storage = getelementptr inbounds %"struct.std::_Vector_base<std::__cxx11::basic_string<char>, std::allocator<std::__cxx11::basic_string<char>>>::_Vector_impl_data", ptr %this1, i32 0, i32 2
  store ptr null, ptr %_M_end_of_storage, align 8
  ret void
}

; Function Attrs: mustprogress nounwind uwtable
define linkonce_odr void @_ZNSaINSt7__cxx1112basic_stringIcSt11char_traitsIcESaIcEEEEC2Ev(ptr noundef nonnull align 1 dereferenceable(1) %this) unnamed_addr #4 comdat align 2 {
entry:
  %this.addr = alloca ptr, align 8
  store ptr %this, ptr %this.addr, align 8
  %this1 = load ptr, ptr %this.addr, align 8
  call void @_ZNSt15__new_allocatorINSt7__cxx1112basic_stringIcSt11char_traitsIcESaIcEEEEC2Ev(ptr noundef nonnull align 1 dereferenceable(1) %this1) #3
  ret void
}

; Function Attrs: mustprogress nounwind uwtable
define linkonce_odr void @_ZNSt12_Vector_baseIN18OpenImageIO_v2_6_08TypeDescESaIS1_EE17_Vector_impl_dataC2Ev(ptr noundef nonnull align 8 dereferenceable(24) %this) unnamed_addr #4 comdat align 2 {
entry:
  %this.addr = alloca ptr, align 8
  store ptr %this, ptr %this.addr, align 8
  %this1 = load ptr, ptr %this.addr, align 8
  %_M_start = getelementptr inbounds %"struct.std::_Vector_base<OpenImageIO_v2_6_0::TypeDesc, std::allocator<OpenImageIO_v2_6_0::TypeDesc>>::_Vector_impl_data", ptr %this1, i32 0, i32 0
  store ptr null, ptr %_M_start, align 8
  %_M_finish = getelementptr inbounds %"struct.std::_Vector_base<OpenImageIO_v2_6_0::TypeDesc, std::allocator<OpenImageIO_v2_6_0::TypeDesc>>::_Vector_impl_data", ptr %this1, i32 0, i32 1
  store ptr null, ptr %_M_finish, align 8
  %_M_end_of_storage = getelementptr inbounds %"struct.std::_Vector_base<OpenImageIO_v2_6_0::TypeDesc, std::allocator<OpenImageIO_v2_6_0::TypeDesc>>::_Vector_impl_data", ptr %this1, i32 0, i32 2
  store ptr null, ptr %_M_end_of_storage, align 8
  ret void
}

; Function Attrs: mustprogress nounwind uwtable
define linkonce_odr void @_ZNSaIN18OpenImageIO_v2_6_08TypeDescEEC2Ev(ptr noundef nonnull align 1 dereferenceable(1) %this) unnamed_addr #4 comdat align 2 {
entry:
  %this.addr = alloca ptr, align 8
  store ptr %this, ptr %this.addr, align 8
  %this1 = load ptr, ptr %this.addr, align 8
  call void @_ZNSt15__new_allocatorIN18OpenImageIO_v2_6_08TypeDescEEC2Ev(ptr noundef nonnull align 1 dereferenceable(1) %this1) #3
  ret void
}

; Function Attrs: mustprogress nounwind uwtable
define linkonce_odr void @_ZNSt12_Vector_baseIN18OpenImageIO_v2_6_010ParamValueESaIS1_EEC2Ev(ptr noundef nonnull align 8 dereferenceable(24) %this) unnamed_addr #4 comdat align 2 {
entry:
  %this.addr = alloca ptr, align 8
  store ptr %this, ptr %this.addr, align 8
  %this1 = load ptr, ptr %this.addr, align 8
  %_M_impl = getelementptr inbounds %"struct.std::_Vector_base.9", ptr %this1, i32 0, i32 0
  call void @_ZNSt12_Vector_baseIN18OpenImageIO_v2_6_010ParamValueESaIS1_EE12_Vector_implC2Ev(ptr noundef nonnull align 8 dereferenceable(24) %_M_impl) #3
  ret void
}

; Function Attrs: mustprogress nounwind uwtable
define linkonce_odr void @_ZNSt12_Vector_baseINSt7__cxx1112basic_stringIcSt11char_traitsIcESaIcEEESaIS5_EE12_Vector_implC2Ev(ptr noundef nonnull align 8 dereferenceable(24) %this) unnamed_addr #4 comdat align 2 {
entry:
  %this.addr = alloca ptr, align 8
  store ptr %this, ptr %this.addr, align 8
  %this1 = load ptr, ptr %this.addr, align 8
  call void @_ZNSaINSt7__cxx1112basic_stringIcSt11char_traitsIcESaIcEEEEC2Ev(ptr noundef nonnull align 1 dereferenceable(1) %this1) #3
  call void @_ZNSt12_Vector_baseINSt7__cxx1112basic_stringIcSt11char_traitsIcESaIcEEESaIS5_EE17_Vector_impl_dataC2Ev(ptr noundef nonnull align 8 dereferenceable(24) %this1) #3
  ret void
}

; Function Attrs: mustprogress nounwind uwtable
define linkonce_odr void @_ZNSt12_Vector_baseIN18OpenImageIO_v2_6_08TypeDescESaIS1_EE12_Vector_implC2Ev(ptr noundef nonnull align 8 dereferenceable(24) %this) unnamed_addr #4 comdat align 2 {
entry:
  %this.addr = alloca ptr, align 8
  store ptr %this, ptr %this.addr, align 8
  %this1 = load ptr, ptr %this.addr, align 8
  call void @_ZNSaIN18OpenImageIO_v2_6_08TypeDescEEC2Ev(ptr noundef nonnull align 1 dereferenceable(1) %this1) #3
  call void @_ZNSt12_Vector_baseIN18OpenImageIO_v2_6_08TypeDescESaIS1_EE17_Vector_impl_dataC2Ev(ptr noundef nonnull align 8 dereferenceable(24) %this1) #3
  ret void
}

; Function Attrs: mustprogress nounwind uwtable
define linkonce_odr void @_ZNSt6vectorIN18OpenImageIO_v2_6_010ParamValueESaIS1_EEC2Ev(ptr noundef nonnull align 8 dereferenceable(24) %this) unnamed_addr #4 comdat align 2 {
entry:
  %this.addr = alloca ptr, align 8
  store ptr %this, ptr %this.addr, align 8
  %this1 = load ptr, ptr %this.addr, align 8
  call void @_ZNSt12_Vector_baseIN18OpenImageIO_v2_6_010ParamValueESaIS1_EEC2Ev(ptr noundef nonnull align 8 dereferenceable(24) %this1) #3
  ret void
}

; Function Attrs: mustprogress nounwind uwtable
define linkonce_odr void @_ZNSt12_Vector_baseINSt7__cxx1112basic_stringIcSt11char_traitsIcESaIcEEESaIS5_EEC2Ev(ptr noundef nonnull align 8 dereferenceable(24) %this) unnamed_addr #4 comdat align 2 {
entry:
  %this.addr = alloca ptr, align 8
  store ptr %this, ptr %this.addr, align 8
  %this1 = load ptr, ptr %this.addr, align 8
  %_M_impl = getelementptr inbounds %"struct.std::_Vector_base.4", ptr %this1, i32 0, i32 0
  call void @_ZNSt12_Vector_baseINSt7__cxx1112basic_stringIcSt11char_traitsIcESaIcEEESaIS5_EE12_Vector_implC2Ev(ptr noundef nonnull align 8 dereferenceable(24) %_M_impl) #3
  ret void
}

; Function Attrs: mustprogress nounwind uwtable
define linkonce_odr void @_ZNSt12_Vector_baseIN18OpenImageIO_v2_6_08TypeDescESaIS1_EEC2Ev(ptr noundef nonnull align 8 dereferenceable(24) %this) unnamed_addr #4 comdat align 2 {
entry:
  %this.addr = alloca ptr, align 8
  store ptr %this, ptr %this.addr, align 8
  %this1 = load ptr, ptr %this.addr, align 8
  %_M_impl = getelementptr inbounds %"struct.std::_Vector_base", ptr %this1, i32 0, i32 0
  call void @_ZNSt12_Vector_baseIN18OpenImageIO_v2_6_08TypeDescESaIS1_EE12_Vector_implC2Ev(ptr noundef nonnull align 8 dereferenceable(24) %_M_impl) #3
  ret void
}

; Function Attrs: noreturn nounwind uwtable
define linkonce_odr hidden void @__clang_call_terminate(ptr noundef %0) #8 comdat {
  %2 = call ptr @__cxa_begin_catch(ptr %0) #3
  call void @_ZSt9terminatev() #21
  unreachable
}

; Function Attrs: mustprogress nounwind uwtable
define linkonce_odr void @_ZN18OpenImageIO_v2_6_014ParamValueListC2Ev(ptr noundef nonnull align 8 dereferenceable(24) %this) unnamed_addr #4 comdat align 2 {
entry:
  %this.addr = alloca ptr, align 8
  store ptr %this, ptr %this.addr, align 8
  %this1 = load ptr, ptr %this.addr, align 8
  call void @_ZNSt6vectorIN18OpenImageIO_v2_6_010ParamValueESaIS1_EEC2Ev(ptr noundef nonnull align 8 dereferenceable(24) %this1) #3
  ret void
}

; Function Attrs: mustprogress nounwind uwtable
define linkonce_odr void @_ZNSt6vectorINSt7__cxx1112basic_stringIcSt11char_traitsIcESaIcEEESaIS5_EEC2Ev(ptr noundef nonnull align 8 dereferenceable(24) %this) unnamed_addr #4 comdat align 2 {
entry:
  %this.addr = alloca ptr, align 8
  store ptr %this, ptr %this.addr, align 8
  %this1 = load ptr, ptr %this.addr, align 8
  call void @_ZNSt12_Vector_baseINSt7__cxx1112basic_stringIcSt11char_traitsIcESaIcEEESaIS5_EEC2Ev(ptr noundef nonnull align 8 dereferenceable(24) %this1) #3
  ret void
}

; Function Attrs: mustprogress nounwind uwtable
define linkonce_odr void @_ZNSt6vectorIN18OpenImageIO_v2_6_08TypeDescESaIS1_EEC2Ev(ptr noundef nonnull align 8 dereferenceable(24) %this) unnamed_addr #4 comdat align 2 {
entry:
  %this.addr = alloca ptr, align 8
  store ptr %this, ptr %this.addr, align 8
  %this1 = load ptr, ptr %this.addr, align 8
  call void @_ZNSt12_Vector_baseIN18OpenImageIO_v2_6_08TypeDescESaIS1_EEC2Ev(ptr noundef nonnull align 8 dereferenceable(24) %this1) #3
  ret void
}

; Function Attrs: mustprogress nounwind uwtable
define linkonce_odr void @_ZN18OpenImageIO_v2_6_08TypeDescC2ERKS0_(ptr noundef nonnull align 4 dereferenceable(8) %this, ptr noundef nonnull align 4 dereferenceable(8) %t) unnamed_addr #4 comdat align 2 {
entry:
  %this.addr = alloca ptr, align 8
  %t.addr = alloca ptr, align 8
  store ptr %this, ptr %this.addr, align 8
  store ptr %t, ptr %t.addr, align 8
  %this1 = load ptr, ptr %this.addr, align 8
  %basetype = getelementptr inbounds %"struct.OpenImageIO_v2_6_0::TypeDesc", ptr %this1, i32 0, i32 0
  %0 = load ptr, ptr %t.addr, align 8
  %basetype2 = getelementptr inbounds %"struct.OpenImageIO_v2_6_0::TypeDesc", ptr %0, i32 0, i32 0
  %1 = load i8, ptr %basetype2, align 4
  store i8 %1, ptr %basetype, align 4
  %aggregate = getelementptr inbounds %"struct.OpenImageIO_v2_6_0::TypeDesc", ptr %this1, i32 0, i32 1
  %2 = load ptr, ptr %t.addr, align 8
  %aggregate3 = getelementptr inbounds %"struct.OpenImageIO_v2_6_0::TypeDesc", ptr %2, i32 0, i32 1
  %3 = load i8, ptr %aggregate3, align 1
  store i8 %3, ptr %aggregate, align 1
  %vecsemantics = getelementptr inbounds %"struct.OpenImageIO_v2_6_0::TypeDesc", ptr %this1, i32 0, i32 2
  %4 = load ptr, ptr %t.addr, align 8
  %vecsemantics4 = getelementptr inbounds %"struct.OpenImageIO_v2_6_0::TypeDesc", ptr %4, i32 0, i32 2
  %5 = load i8, ptr %vecsemantics4, align 2
  store i8 %5, ptr %vecsemantics, align 2
  %reserved = getelementptr inbounds %"struct.OpenImageIO_v2_6_0::TypeDesc", ptr %this1, i32 0, i32 3
  store i8 0, ptr %reserved, align 1
  %arraylen = getelementptr inbounds %"struct.OpenImageIO_v2_6_0::TypeDesc", ptr %this1, i32 0, i32 4
  %6 = load ptr, ptr %t.addr, align 8
  %arraylen5 = getelementptr inbounds %"struct.OpenImageIO_v2_6_0::TypeDesc", ptr %6, i32 0, i32 4
  %7 = load i32, ptr %arraylen5, align 4
  store i32 %7, ptr %arraylen, align 4
  ret void
}

; Function Attrs: mustprogress nounwind uwtable
define void @_ZN18OpenImageIO_v2_6_09ImageSpecC2EiiiNS_8TypeDescE(ptr noundef nonnull align 8 dereferenceable(160) %this, i32 noundef %xres, i32 noundef %yres, i32 noundef %nchans, ptr noundef %format) unnamed_addr #4 align 2 personality ptr @__gxx_personality_v0 {
entry:
  %this.addr = alloca ptr, align 8
  %xres.addr = alloca i32, align 4
  %yres.addr = alloca i32, align 4
  %nchans.addr = alloca i32, align 4
  %format.indirect_addr = alloca ptr, align 8
  store ptr %this, ptr %this.addr, align 8
  store i32 %xres, ptr %xres.addr, align 4
  store i32 %yres, ptr %yres.addr, align 4
  store i32 %nchans, ptr %nchans.addr, align 4
  store ptr %format, ptr %format.indirect_addr, align 8
  %this1 = load ptr, ptr %this.addr, align 8
  %x = getelementptr inbounds %"class.OpenImageIO_v2_6_0::ImageSpec", ptr %this1, i32 0, i32 0
  store i32 0, ptr %x, align 8
  %y = getelementptr inbounds %"class.OpenImageIO_v2_6_0::ImageSpec", ptr %this1, i32 0, i32 1
  store i32 0, ptr %y, align 4
  %z = getelementptr inbounds %"class.OpenImageIO_v2_6_0::ImageSpec", ptr %this1, i32 0, i32 2
  store i32 0, ptr %z, align 8
  %width = getelementptr inbounds %"class.OpenImageIO_v2_6_0::ImageSpec", ptr %this1, i32 0, i32 3
  %0 = load i32, ptr %xres.addr, align 4
  store i32 %0, ptr %width, align 4
  %height = getelementptr inbounds %"class.OpenImageIO_v2_6_0::ImageSpec", ptr %this1, i32 0, i32 4
  %1 = load i32, ptr %yres.addr, align 4
  store i32 %1, ptr %height, align 8
  %depth = getelementptr inbounds %"class.OpenImageIO_v2_6_0::ImageSpec", ptr %this1, i32 0, i32 5
  store i32 1, ptr %depth, align 4
  %full_x = getelementptr inbounds %"class.OpenImageIO_v2_6_0::ImageSpec", ptr %this1, i32 0, i32 6
  store i32 0, ptr %full_x, align 8
  %full_y = getelementptr inbounds %"class.OpenImageIO_v2_6_0::ImageSpec", ptr %this1, i32 0, i32 7
  store i32 0, ptr %full_y, align 4
  %full_z = getelementptr inbounds %"class.OpenImageIO_v2_6_0::ImageSpec", ptr %this1, i32 0, i32 8
  store i32 0, ptr %full_z, align 8
  %full_width = getelementptr inbounds %"class.OpenImageIO_v2_6_0::ImageSpec", ptr %this1, i32 0, i32 9
  %2 = load i32, ptr %xres.addr, align 4
  store i32 %2, ptr %full_width, align 4
  %full_height = getelementptr inbounds %"class.OpenImageIO_v2_6_0::ImageSpec", ptr %this1, i32 0, i32 10
  %3 = load i32, ptr %yres.addr, align 4
  store i32 %3, ptr %full_height, align 8
  %full_depth = getelementptr inbounds %"class.OpenImageIO_v2_6_0::ImageSpec", ptr %this1, i32 0, i32 11
  store i32 1, ptr %full_depth, align 4
  %tile_width = getelementptr inbounds %"class.OpenImageIO_v2_6_0::ImageSpec", ptr %this1, i32 0, i32 12
  store i32 0, ptr %tile_width, align 8
  %tile_height = getelementptr inbounds %"class.OpenImageIO_v2_6_0::ImageSpec", ptr %this1, i32 0, i32 13
  store i32 0, ptr %tile_height, align 4
  %tile_depth = getelementptr inbounds %"class.OpenImageIO_v2_6_0::ImageSpec", ptr %this1, i32 0, i32 14
  store i32 1, ptr %tile_depth, align 8
  %nchannels = getelementptr inbounds %"class.OpenImageIO_v2_6_0::ImageSpec", ptr %this1, i32 0, i32 15
  %4 = load i32, ptr %nchans.addr, align 4
  store i32 %4, ptr %nchannels, align 4
  %format2 = getelementptr inbounds %"class.OpenImageIO_v2_6_0::ImageSpec", ptr %this1, i32 0, i32 16
  call void @_ZN18OpenImageIO_v2_6_08TypeDescC2ERKS0_(ptr noundef nonnull align 4 dereferenceable(8) %format2, ptr noundef nonnull align 4 dereferenceable(8) %format) #3
  %channelformats = getelementptr inbounds %"class.OpenImageIO_v2_6_0::ImageSpec", ptr %this1, i32 0, i32 17
  call void @_ZNSt6vectorIN18OpenImageIO_v2_6_08TypeDescESaIS1_EEC2Ev(ptr noundef nonnull align 8 dereferenceable(24) %channelformats) #3
  %channelnames = getelementptr inbounds %"class.OpenImageIO_v2_6_0::ImageSpec", ptr %this1, i32 0, i32 18
  call void @_ZNSt6vectorINSt7__cxx1112basic_stringIcSt11char_traitsIcESaIcEEESaIS5_EEC2Ev(ptr noundef nonnull align 8 dereferenceable(24) %channelnames) #3
  %alpha_channel = getelementptr inbounds %"class.OpenImageIO_v2_6_0::ImageSpec", ptr %this1, i32 0, i32 19
  store i32 -1, ptr %alpha_channel, align 8
  %z_channel = getelementptr inbounds %"class.OpenImageIO_v2_6_0::ImageSpec", ptr %this1, i32 0, i32 20
  store i32 -1, ptr %z_channel, align 4
  %deep = getelementptr inbounds %"class.OpenImageIO_v2_6_0::ImageSpec", ptr %this1, i32 0, i32 21
  store i8 0, ptr %deep, align 8
  %extra_attribs = getelementptr inbounds %"class.OpenImageIO_v2_6_0::ImageSpec", ptr %this1, i32 0, i32 22
  invoke void @_ZN18OpenImageIO_v2_6_014ParamValueListC2Ev(ptr noundef nonnull align 8 dereferenceable(24) %extra_attribs)
          to label %invoke.cont unwind label %terminate.lpad

invoke.cont:                                      ; preds = %entry
  call void @_ZN18OpenImageIO_v2_6_09ImageSpec21default_channel_namesEv(ptr noundef nonnull align 8 dereferenceable(160) %this1) #3
  ret void

terminate.lpad:                                   ; preds = %entry
  %5 = landingpad { ptr, i32 }
          catch ptr null
  %6 = extractvalue { ptr, i32 } %5, 0
  call void @__clang_call_terminate(ptr %6) #21
  unreachable
}