; Function Attrs: mustprogress nounwind uwtable
define void @_ZN18OpenImageIO_v2_6_09ImageSpecC2EiiiNS_8TypeDescE(ptr noundef nonnull align 8 dereferenceable(160) %this, i32 noundef %xres, i32 noundef %yres, i32 noundef %nchans, ptr nocapture noundef readonly %format) unnamed_addr #3 align 2 personality ptr @__gxx_personality_v0 {
entry:
  store i32 0, ptr %this, align 8
  %y = getelementptr inbounds i8, ptr %this, i64 4
  store i32 0, ptr %y, align 4
  %z = getelementptr inbounds i8, ptr %this, i64 8
  store i32 0, ptr %z, align 8
  %width = getelementptr inbounds i8, ptr %this, i64 12
  store i32 %xres, ptr %width, align 4
  %height = getelementptr inbounds i8, ptr %this, i64 16
  store i32 %yres, ptr %height, align 8
  %depth = getelementptr inbounds i8, ptr %this, i64 20
  store <4 x i32> <i32 1, i32 0, i32 0, i32 0>, ptr %depth, align 4
  %full_width = getelementptr inbounds i8, ptr %this, i64 36
  store i32 %xres, ptr %full_width, align 4
  %full_height = getelementptr inbounds i8, ptr %this, i64 40
  store i32 %yres, ptr %full_height, align 8
  %full_depth = getelementptr inbounds i8, ptr %this, i64 44
  store <4 x i32> <i32 1, i32 0, i32 0, i32 1>, ptr %full_depth, align 4
  %nchannels = getelementptr inbounds i8, ptr %this, i64 60
  store i32 %nchans, ptr %nchannels, align 4
  %format2 = getelementptr inbounds i8, ptr %this, i64 64
  %0 = load i8, ptr %format, align 4
  store i8 %0, ptr %format2, align 8
  %aggregate.i = getelementptr inbounds i8, ptr %this, i64 65
  %aggregate3.i = getelementptr inbounds i8, ptr %format, i64 1
  %1 = load i8, ptr %aggregate3.i, align 1
  store i8 %1, ptr %aggregate.i, align 1
  %vecsemantics.i = getelementptr inbounds i8, ptr %this, i64 66
  %vecsemantics4.i = getelementptr inbounds i8, ptr %format, i64 2
  %2 = load i8, ptr %vecsemantics4.i, align 2
  store i8 %2, ptr %vecsemantics.i, align 2
  %reserved.i = getelementptr inbounds i8, ptr %this, i64 67
  store i8 0, ptr %reserved.i, align 1
  %arraylen.i = getelementptr inbounds i8, ptr %this, i64 68
  %arraylen5.i = getelementptr inbounds i8, ptr %format, i64 4
  %3 = load i32, ptr %arraylen5.i, align 4
  store i32 %3, ptr %arraylen.i, align 4
  %channelformats = getelementptr inbounds i8, ptr %this, i64 72
  %alpha_channel = getelementptr inbounds i8, ptr %this, i64 120
  tail call void @llvm.memset.p0.i64(ptr noundef nonnull align 8 dereferenceable(48) %channelformats, i8 0, i64 48, i1 false)
  store i32 -1, ptr %alpha_channel, align 8
  %z_channel = getelementptr inbounds i8, ptr %this, i64 124
  store i32 -1, ptr %z_channel, align 4
  %deep = getelementptr inbounds i8, ptr %this, i64 128
  store i8 0, ptr %deep, align 8
  %extra_attribs = getelementptr inbounds i8, ptr %this, i64 136
  tail call void @llvm.memset.p0.i64(ptr noundef nonnull align 8 dereferenceable(24) %extra_attribs, i8 0, i64 24, i1 false)
  tail call void @_ZN18OpenImageIO_v2_6_09ImageSpec21default_channel_namesEv(ptr noundef nonnull align 8 dereferenceable(160) %this) #28
  ret void
}